

Microchip MPLAB XC8 Assembler V2.10 build 88905656 
                                                                                               Fri May 01 10:28:07 2020

Microchip MPLAB XC8 C Compiler v2.10 (Free license) build 20190730164152 Og1 
     1                           	processor	16F877A
     2                           	opt	pw 120
     3                           	opt	flic
     4                           	psect	idataBANK0,global,class=CODE,delta=2
     5                           	psect	cinit,global,class=CODE,merge=1,delta=2
     6                           	psect	dataBANK0,global,class=BANK0,space=1,delta=1
     7                           	psect	inittext,global,class=CODE,delta=2
     8                           	psect	cstackCOMMON,global,class=COMMON,space=1,delta=1
     9                           	psect	cstackBANK0,global,class=BANK0,space=1,delta=1
    10                           	psect	maintext,global,class=CODE,split=1,delta=2
    11                           	psect	text1,local,class=CODE,merge=1,delta=2
    12                           	psect	text2,local,class=CODE,merge=1,delta=2
    13                           	psect	text3,local,class=CODE,merge=1,delta=2
    14                           	psect	text4,local,class=CODE,merge=1,delta=2
    15                           	psect	text5,local,class=CODE,merge=1,delta=2
    16                           	psect	text6,local,class=CODE,merge=1,delta=2
    17                           	psect	text7,local,class=CODE,merge=1,delta=2
    18                           	psect	text8,local,class=CODE,merge=1,delta=2
    19                           	psect	text9,local,class=CODE,merge=1,delta=2
    20                           	psect	text10,local,class=CODE,merge=1,delta=2
    21                           	dabs	1,0x7E,2
    22  0000                     
    23                           ; Version 2.10
    24                           ; Generated 31/07/2019 GMT
    25                           ; 
    26                           ; Copyright © 2019, Microchip Technology Inc. and its subsidiaries ("Microchip")
    27                           ; All rights reserved.
    28                           ; 
    29                           ; This software is developed by Microchip Technology Inc. and its subsidiaries ("Microch
      +                          ip").
    30                           ; 
    31                           ; Redistribution and use in source and binary forms, with or without modification, are
    32                           ; permitted provided that the following conditions are met:
    33                           ; 
    34                           ;     1. Redistributions of source code must retain the above copyright notice, this lis
      +                          t of
    35                           ;        conditions and the following disclaimer.
    36                           ; 
    37                           ;     2. Redistributions in binary form must reproduce the above copyright notice, this 
      +                          list
    38                           ;        of conditions and the following disclaimer in the documentation and/or other
    39                           ;        materials provided with the distribution.
    40                           ; 
    41                           ;     3. Microchip's name may not be used to endorse or promote products derived from th
      +                          is
    42                           ;        software without specific prior written permission.
    43                           ; 
    44                           ; THIS SOFTWARE IS PROVIDED BY MICROCHIP "AS IS" AND ANY EXPRESS OR IMPLIED WARRANTIES,
    45                           ; INCLUDING, BUT NOT LIMITED TO, THE IMPLIED WARRANTIES OF MERCHANTABILITY AND FITNESS F
      +                          OR
    46                           ; PURPOSE ARE DISCLAIMED.  IN NO EVENT SHALL MICROCHIP BE LIABLE FOR ANY DIRECT, INDIREC
      +                          T,
    47                           ; INCIDENTAL, SPECIAL, EXEMPLARY, OR CONSEQUENTIAL DAMAGES (INCLUDING BUT NOT LIMITED TO
    48                           ; PROCUREMENT OF SUBSTITUTE GOODS OR SERVICES; LOSS OF USE, DATA OR PROFITS; OR BUSINESS
    49                           ; INTERRUPTION) HOWSOEVER CAUSED AND ON ANY THEORY OF LIABILITY, WHETHER IN CONTRACT, ST
      +                          RICT
    50                           ; LIABILITY, OR TORT (INCLUDING NEGLIGENCE OR OTHERWISE) ARISING IN ANY WAY OUT OF THE U
      +                          SE OF
    51                           ; THIS SOFTWARE, EVEN IF ADVISED OF THE POSSIBILITY OF SUCH DAMAGE.
    52                           ; 
    53                           ; 
    54                           ; Code-generator required, PIC16F877A Definitions
    55                           ; 
    56                           ; SFR Addresses
    57  0000                     	;# 
    58  0001                     	;# 
    59  0002                     	;# 
    60  0003                     	;# 
    61  0004                     	;# 
    62  0005                     	;# 
    63  0006                     	;# 
    64  0007                     	;# 
    65  0008                     	;# 
    66  0009                     	;# 
    67  000A                     	;# 
    68  000B                     	;# 
    69  000C                     	;# 
    70  000D                     	;# 
    71  000E                     	;# 
    72  000E                     	;# 
    73  000F                     	;# 
    74  0010                     	;# 
    75  0011                     	;# 
    76  0012                     	;# 
    77  0013                     	;# 
    78  0014                     	;# 
    79  0015                     	;# 
    80  0015                     	;# 
    81  0016                     	;# 
    82  0017                     	;# 
    83  0018                     	;# 
    84  0019                     	;# 
    85  001A                     	;# 
    86  001B                     	;# 
    87  001B                     	;# 
    88  001C                     	;# 
    89  001D                     	;# 
    90  001E                     	;# 
    91  001F                     	;# 
    92  0081                     	;# 
    93  0085                     	;# 
    94  0086                     	;# 
    95  0087                     	;# 
    96  0088                     	;# 
    97  0089                     	;# 
    98  008C                     	;# 
    99  008D                     	;# 
   100  008E                     	;# 
   101  0091                     	;# 
   102  0092                     	;# 
   103  0093                     	;# 
   104  0094                     	;# 
   105  0098                     	;# 
   106  0099                     	;# 
   107  009C                     	;# 
   108  009D                     	;# 
   109  009E                     	;# 
   110  009F                     	;# 
   111  010C                     	;# 
   112  010D                     	;# 
   113  010E                     	;# 
   114  010F                     	;# 
   115  018C                     	;# 
   116  018D                     	;# 
   117  0000                     	;# 
   118  0001                     	;# 
   119  0002                     	;# 
   120  0003                     	;# 
   121  0004                     	;# 
   122  0005                     	;# 
   123  0006                     	;# 
   124  0007                     	;# 
   125  0008                     	;# 
   126  0009                     	;# 
   127  000A                     	;# 
   128  000B                     	;# 
   129  000C                     	;# 
   130  000D                     	;# 
   131  000E                     	;# 
   132  000E                     	;# 
   133  000F                     	;# 
   134  0010                     	;# 
   135  0011                     	;# 
   136  0012                     	;# 
   137  0013                     	;# 
   138  0014                     	;# 
   139  0015                     	;# 
   140  0015                     	;# 
   141  0016                     	;# 
   142  0017                     	;# 
   143  0018                     	;# 
   144  0019                     	;# 
   145  001A                     	;# 
   146  001B                     	;# 
   147  001B                     	;# 
   148  001C                     	;# 
   149  001D                     	;# 
   150  001E                     	;# 
   151  001F                     	;# 
   152  0081                     	;# 
   153  0085                     	;# 
   154  0086                     	;# 
   155  0087                     	;# 
   156  0088                     	;# 
   157  0089                     	;# 
   158  008C                     	;# 
   159  008D                     	;# 
   160  008E                     	;# 
   161  0091                     	;# 
   162  0092                     	;# 
   163  0093                     	;# 
   164  0094                     	;# 
   165  0098                     	;# 
   166  0099                     	;# 
   167  009C                     	;# 
   168  009D                     	;# 
   169  009E                     	;# 
   170  009F                     	;# 
   171  010C                     	;# 
   172  010D                     	;# 
   173  010E                     	;# 
   174  010F                     	;# 
   175  018C                     	;# 
   176  018D                     	;# 
   177  0000                     	;# 
   178  0001                     	;# 
   179  0002                     	;# 
   180  0003                     	;# 
   181  0004                     	;# 
   182  0005                     	;# 
   183  0006                     	;# 
   184  0007                     	;# 
   185  0008                     	;# 
   186  0009                     	;# 
   187  000A                     	;# 
   188  000B                     	;# 
   189  000C                     	;# 
   190  000D                     	;# 
   191  000E                     	;# 
   192  000E                     	;# 
   193  000F                     	;# 
   194  0010                     	;# 
   195  0011                     	;# 
   196  0012                     	;# 
   197  0013                     	;# 
   198  0014                     	;# 
   199  0015                     	;# 
   200  0015                     	;# 
   201  0016                     	;# 
   202  0017                     	;# 
   203  0018                     	;# 
   204  0019                     	;# 
   205  001A                     	;# 
   206  001B                     	;# 
   207  001B                     	;# 
   208  001C                     	;# 
   209  001D                     	;# 
   210  001E                     	;# 
   211  001F                     	;# 
   212  0081                     	;# 
   213  0085                     	;# 
   214  0086                     	;# 
   215  0087                     	;# 
   216  0088                     	;# 
   217  0089                     	;# 
   218  008C                     	;# 
   219  008D                     	;# 
   220  008E                     	;# 
   221  0091                     	;# 
   222  0092                     	;# 
   223  0093                     	;# 
   224  0094                     	;# 
   225  0098                     	;# 
   226  0099                     	;# 
   227  009C                     	;# 
   228  009D                     	;# 
   229  009E                     	;# 
   230  009F                     	;# 
   231  010C                     	;# 
   232  010D                     	;# 
   233  010E                     	;# 
   234  010F                     	;# 
   235  018C                     	;# 
   236  018D                     	;# 
   237  0000                     	;# 
   238  0001                     	;# 
   239  0002                     	;# 
   240  0003                     	;# 
   241  0004                     	;# 
   242  0005                     	;# 
   243  0006                     	;# 
   244  0007                     	;# 
   245  0008                     	;# 
   246  0009                     	;# 
   247  000A                     	;# 
   248  000B                     	;# 
   249  000C                     	;# 
   250  000D                     	;# 
   251  000E                     	;# 
   252  000E                     	;# 
   253  000F                     	;# 
   254  0010                     	;# 
   255  0011                     	;# 
   256  0012                     	;# 
   257  0013                     	;# 
   258  0014                     	;# 
   259  0015                     	;# 
   260  0015                     	;# 
   261  0016                     	;# 
   262  0017                     	;# 
   263  0018                     	;# 
   264  0019                     	;# 
   265  001A                     	;# 
   266  001B                     	;# 
   267  001B                     	;# 
   268  001C                     	;# 
   269  001D                     	;# 
   270  001E                     	;# 
   271  001F                     	;# 
   272  0081                     	;# 
   273  0085                     	;# 
   274  0086                     	;# 
   275  0087                     	;# 
   276  0088                     	;# 
   277  0089                     	;# 
   278  008C                     	;# 
   279  008D                     	;# 
   280  008E                     	;# 
   281  0091                     	;# 
   282  0092                     	;# 
   283  0093                     	;# 
   284  0094                     	;# 
   285  0098                     	;# 
   286  0099                     	;# 
   287  009C                     	;# 
   288  009D                     	;# 
   289  009E                     	;# 
   290  009F                     	;# 
   291  010C                     	;# 
   292  010D                     	;# 
   293  010E                     	;# 
   294  010F                     	;# 
   295  018C                     	;# 
   296  018D                     	;# 
   297  0000                     	;# 
   298  0001                     	;# 
   299  0002                     	;# 
   300  0003                     	;# 
   301  0004                     	;# 
   302  0005                     	;# 
   303  0006                     	;# 
   304  0007                     	;# 
   305  0008                     	;# 
   306  0009                     	;# 
   307  000A                     	;# 
   308  000B                     	;# 
   309  000C                     	;# 
   310  000D                     	;# 
   311  000E                     	;# 
   312  000E                     	;# 
   313  000F                     	;# 
   314  0010                     	;# 
   315  0011                     	;# 
   316  0012                     	;# 
   317  0013                     	;# 
   318  0014                     	;# 
   319  0015                     	;# 
   320  0015                     	;# 
   321  0016                     	;# 
   322  0017                     	;# 
   323  0018                     	;# 
   324  0019                     	;# 
   325  001A                     	;# 
   326  001B                     	;# 
   327  001B                     	;# 
   328  001C                     	;# 
   329  001D                     	;# 
   330  001E                     	;# 
   331  001F                     	;# 
   332  0081                     	;# 
   333  0085                     	;# 
   334  0086                     	;# 
   335  0087                     	;# 
   336  0088                     	;# 
   337  0089                     	;# 
   338  008C                     	;# 
   339  008D                     	;# 
   340  008E                     	;# 
   341  0091                     	;# 
   342  0092                     	;# 
   343  0093                     	;# 
   344  0094                     	;# 
   345  0098                     	;# 
   346  0099                     	;# 
   347  009C                     	;# 
   348  009D                     	;# 
   349  009E                     	;# 
   350  009F                     	;# 
   351  010C                     	;# 
   352  010D                     	;# 
   353  010E                     	;# 
   354  010F                     	;# 
   355  018C                     	;# 
   356  018D                     	;# 
   357  0000                     	;# 
   358  0001                     	;# 
   359  0002                     	;# 
   360  0003                     	;# 
   361  0004                     	;# 
   362  0005                     	;# 
   363  0006                     	;# 
   364  0007                     	;# 
   365  0008                     	;# 
   366  0009                     	;# 
   367  000A                     	;# 
   368  000B                     	;# 
   369  000C                     	;# 
   370  000D                     	;# 
   371  000E                     	;# 
   372  000E                     	;# 
   373  000F                     	;# 
   374  0010                     	;# 
   375  0011                     	;# 
   376  0012                     	;# 
   377  0013                     	;# 
   378  0014                     	;# 
   379  0015                     	;# 
   380  0015                     	;# 
   381  0016                     	;# 
   382  0017                     	;# 
   383  0018                     	;# 
   384  0019                     	;# 
   385  001A                     	;# 
   386  001B                     	;# 
   387  001B                     	;# 
   388  001C                     	;# 
   389  001D                     	;# 
   390  001E                     	;# 
   391  001F                     	;# 
   392  0081                     	;# 
   393  0085                     	;# 
   394  0086                     	;# 
   395  0087                     	;# 
   396  0088                     	;# 
   397  0089                     	;# 
   398  008C                     	;# 
   399  008D                     	;# 
   400  008E                     	;# 
   401  0091                     	;# 
   402  0092                     	;# 
   403  0093                     	;# 
   404  0094                     	;# 
   405  0098                     	;# 
   406  0099                     	;# 
   407  009C                     	;# 
   408  009D                     	;# 
   409  009E                     	;# 
   410  009F                     	;# 
   411  010C                     	;# 
   412  010D                     	;# 
   413  010E                     	;# 
   414  010F                     	;# 
   415  018C                     	;# 
   416  018D                     	;# 
   417                           
   418                           	psect	idataBANK0
   419  061F                     __pidataBANK0:	
   420                           
   421                           ;initializer for _value
   422  061F  3401               	retlw	1
   423  0620  3400               	retlw	0
   424  0621  3400               	retlw	0
   425  0622  3401               	retlw	1
   426  0623  3400               	retlw	0
   427  0624  3401               	retlw	1
   428  0625  3401               	retlw	1
   429  0626  3400               	retlw	0
   430                           
   431                           ;initializer for _columna
   432  0627  3401               	retlw	1
   433  0628  3400               	retlw	0
   434                           
   435                           ;initializer for _value4
   436  0629  34FF               	retlw	255
   437  062A  34FF               	retlw	255
   438                           
   439                           ;initializer for _value3
   440  062B  34AA               	retlw	170
   441  062C  3496               	retlw	150
   442                           
   443                           ;initializer for _value2
   444  062D  3496               	retlw	150
   445  0008                     _PORTDbits	set	8
   446  0006                     _PORTBbits	set	6
   447  0088                     _TRISDbits	set	136
   448  0086                     _TRISBbits	set	134
   449                           
   450                           ; #config settings
   451  0000                     
   452                           	psect	cinit
   453  07EE                     start_initialization:	
   454  07EE                     __initialization:	
   455                           
   456                           ; Initialize objects allocated to BANK0
   457  07EE  1383               	bcf	3,7	;select IRP bank0
   458  07EF  302F               	movlw	low (__pdataBANK0+15)
   459  07F0  00FD               	movwf	btemp+-1
   460  07F1  3006               	movlw	high __pidataBANK0
   461  07F2  00FE               	movwf	btemp
   462  07F3  301F               	movlw	low __pidataBANK0
   463  07F4  00FF               	movwf	btemp+1
   464  07F5  3020               	movlw	low __pdataBANK0
   465  07F6  0084               	movwf	4
   466  07F7  120A  118A  2632  120A  118A  	fcall	init_ram0
   467  07FC                     end_of_initialization:	
   468                           ;End of C runtime variable initialization code
   469                           
   470  07FC                     __end_of__initialization:	
   471  07FC  0183               	clrf	3
   472  07FD  120A  118A  2E74   	ljmp	_main	;jump to C main() function
   473                           
   474                           	psect	dataBANK0
   475  0020                     __pdataBANK0:	
   476  0020                     _value:	
   477  0020                     	ds	8
   478  0028                     _columna:	
   479  0028                     	ds	2
   480  002A                     _value4:	
   481  002A                     	ds	2
   482  002C                     _value3:	
   483  002C                     	ds	2
   484  002E                     _value2:	
   485  002E                     	ds	1
   486                           
   487                           	psect	inittext
   488  062E                     init_fetch0:	
   489                           ;	Called with low address in FSR and high address in W
   490                           
   491  062E  087E               	movf	btemp,w
   492  062F  008A               	movwf	10
   493  0630  087F               	movf	btemp+1,w
   494  0631  0082               	movwf	2
   495  0632                     init_ram0:	
   496                           ;Called with:
   497                           ;	high address of idata address in btemp 
   498                           ;	low address of idata address in btemp+1 
   499                           ;	low address of data in FSR
   500                           ;	high address + 1 of data in btemp-1
   501                           
   502  0632  120A  118A  262E  120A  118A  	fcall	init_fetch0
   503  0637  0080               	movwf	0
   504  0638  0A84               	incf	4,f
   505  0639  0804               	movf	4,w
   506  063A  067D               	xorwf	btemp+-1,w
   507  063B  1903               	btfsc	3,2
   508  063C  3400               	retlw	0
   509  063D  0AFF               	incf	btemp+1,f
   510  063E  1903               	btfsc	3,2
   511  063F  0AFE               	incf	btemp,f
   512  0640  2E32               	goto	init_ram0
   513                           
   514                           	psect	cstackCOMMON
   515  0070                     __pcstackCOMMON:	
   516  0070                     ?_setColumnas:	
   517  0070                     ??_setColumnas:	
   518                           ; 1 bytes @ 0x0
   519                           
   520  0070                     ?_setFilas:	
   521                           ; 1 bytes @ 0x0
   522                           
   523  0070                     ?_updateScreen:	
   524                           ; 1 bytes @ 0x0
   525                           
   526  0070                     ?_shiftBitColumna:	
   527                           ; 1 bytes @ 0x0
   528                           
   529  0070                     ??_shiftBitColumna:	
   530                           ; 1 bytes @ 0x0
   531                           
   532  0070                     ?_init_pines:	
   533                           ; 1 bytes @ 0x0
   534                           
   535  0070                     ??_init_pines:	
   536                           ; 1 bytes @ 0x0
   537                           
   538  0070                     ?_enableFilas:	
   539                           ; 1 bytes @ 0x0
   540                           
   541  0070                     ??_enableFilas:	
   542                           ; 1 bytes @ 0x0
   543                           
   544  0070                     ?_latchClock_Fil:	
   545                           ; 1 bytes @ 0x0
   546                           
   547  0070                     ??_latchClock_Fil:	
   548                           ; 1 bytes @ 0x0
   549                           
   550  0070                     ?_shiftClock_Fil:	
   551                           ; 1 bytes @ 0x0
   552                           
   553  0070                     ??_shiftClock_Fil:	
   554                           ; 1 bytes @ 0x0
   555                           
   556  0070                     ?_latchClock_Col:	
   557                           ; 1 bytes @ 0x0
   558                           
   559  0070                     ??_latchClock_Col:	
   560                           ; 1 bytes @ 0x0
   561                           
   562  0070                     ?_shiftClock_Col:	
   563                           ; 1 bytes @ 0x0
   564                           
   565  0070                     ??_shiftClock_Col:	
   566                           ; 1 bytes @ 0x0
   567                           
   568  0070                     setFilas@reg_value:	
   569                           ; 1 bytes @ 0x0
   570                           
   571                           
   572                           ; 2 bytes @ 0x0
   573  0070                     	ds	1
   574  0071                     shiftBitColumna@bit:	
   575                           
   576                           ; 1 bytes @ 0x1
   577  0071                     	ds	1
   578  0072                     ??_setFilas:	
   579                           
   580                           ; 1 bytes @ 0x2
   581  0072                     	ds	2
   582  0074                     setColumnas@valor:	
   583                           
   584                           ; 1 bytes @ 0x4
   585  0074                     	ds	1
   586  0075                     setColumnas@reg_value:	
   587                           
   588                           ; 1 bytes @ 0x5
   589  0075                     	ds	1
   590  0076                     setColumnas@i:	
   591                           
   592                           ; 2 bytes @ 0x6
   593  0076                     	ds	4
   594  007A                     setFilas@i:	
   595                           
   596                           ; 2 bytes @ 0xA
   597  007A                     	ds	2
   598  007C                     ??_updateScreen:	
   599  007C                     ??_main:	
   600                           ; 1 bytes @ 0xC
   601                           
   602                           
   603                           	psect	cstackBANK0
   604  002F                     __pcstackBANK0:	
   605                           ; 1 bytes @ 0xC
   606                           
   607  002F                     ?_main:	
   608  002F                     main@argc:	
   609                           ; 2 bytes @ 0x0
   610                           
   611                           
   612                           ; 2 bytes @ 0x0
   613  002F                     	ds	2
   614  0031                     main@argv:	
   615                           
   616                           ; 2 bytes @ 0x2
   617  0031                     	ds	2
   618                           
   619                           	psect	maintext
   620  0674                     __pmaintext:	
   621 ;;
   622 ;;Main: autosize = 0, tempsize = 0, incstack = 0, save=0
   623 ;;
   624 ;; *************** function _main *****************
   625 ;; Defined at:
   626 ;;		line 46 in file "mainsource.c"
   627 ;; Parameters:    Size  Location     Type
   628 ;;  argc            2    0[BANK0 ] int 
   629 ;;  argv            2    2[BANK0 ] PTR PTR unsigned char 
   630 ;; Auto vars:     Size  Location     Type
   631 ;;  i               2    0        int 
   632 ;; Return value:  Size  Location     Type
   633 ;;                  2    0[BANK0 ] int 
   634 ;; Registers used:
   635 ;;		wreg, fsr0l, fsr0h, status,2, status,0, btemp+1, pclath, cstack
   636 ;; Tracked objects:
   637 ;;		On entry : B00/0
   638 ;;		On exit  : 0/0
   639 ;;		Unchanged: 0/0
   640 ;; Data sizes:     COMMON   BANK0   BANK1   BANK3   BANK2
   641 ;;      Params:         0       4       0       0       0
   642 ;;      Locals:         2       0       0       0       0
   643 ;;      Temps:          0       0       0       0       0
   644 ;;      Totals:         2       4       0       0       0
   645 ;;Total ram usage:        6 bytes
   646 ;; Hardware stack levels required when called:    3
   647 ;; This function calls:
   648 ;;		_init_pines
   649 ;;		_setColumnas
   650 ;;		_setFilas
   651 ;;		_updateScreen
   652 ;; This function is called by:
   653 ;;		Startup code after reset
   654 ;; This function uses a non-reentrant model
   655 ;;
   656                           
   657                           
   658                           ;psect for function _main
   659  0674                     _main:	
   660  0674                     l959:	
   661                           ;incstack = 0
   662                           ; Regs used in _main: [wreg-fsr0h+status,2+status,0+btemp+1+pclath+cstack]
   663                           
   664                           
   665                           ;mainsource.c: 48:     init_pines();
   666  0674  120A  118A  2641  120A  118A  	fcall	_init_pines
   667  0679                     l961:	
   668  0679                     l963:	
   669                           
   670                           ;mainsource.c: 52:     setColumnas(0x00);
   671  0679  3000               	movlw	0
   672  067A  120A  118A  2693  120A  118A  	fcall	_setColumnas
   673  067F                     l965:	
   674                           
   675                           ;mainsource.c: 53:     setFilas(0x0000);
   676  067F  3000               	movlw	0
   677  0680  00F0               	movwf	setFilas@reg_value
   678  0681  00F1               	movwf	setFilas@reg_value+1
   679  0682  120A  118A  26D2  120A  118A  	fcall	_setFilas
   680  0687                     l967:	
   681                           
   682                           ;mainsource.c: 54:     PORTBbits.RB0 = 1;
   683  0687  1283               	bcf	3,5	;RP0=0, select bank0
   684  0688  1303               	bcf	3,6	;RP1=0, select bank0
   685  0689  1406               	bsf	6,0	;volatile
   686  068A                     l969:	
   687                           
   688                           ;mainsource.c: 57:         updateScreen();
   689  068A  120A  118A  271B  120A  118A  	fcall	_updateScreen
   690  068F  2E8A               	goto	l969
   691  0690  120A  118A  2800   	ljmp	start
   692  0693                     __end_of_main:	
   693                           
   694                           	psect	text1
   695  071B                     __ptext1:	
   696 ;; *************** function _updateScreen *****************
   697 ;; Defined at:
   698 ;;		line 63 in file "mainsource.c"
   699 ;; Parameters:    Size  Location     Type
   700 ;;		None
   701 ;; Auto vars:     Size  Location     Type
   702 ;;		None
   703 ;; Return value:  Size  Location     Type
   704 ;;                  1    wreg      void 
   705 ;; Registers used:
   706 ;;		wreg, fsr0l, fsr0h, status,2, status,0, btemp+1, pclath, cstack
   707 ;; Tracked objects:
   708 ;;		On entry : 0/0
   709 ;;		On exit  : 0/0
   710 ;;		Unchanged: 0/0
   711 ;; Data sizes:     COMMON   BANK0   BANK1   BANK3   BANK2
   712 ;;      Params:         0       0       0       0       0
   713 ;;      Locals:         0       0       0       0       0
   714 ;;      Temps:          0       0       0       0       0
   715 ;;      Totals:         0       0       0       0       0
   716 ;;Total ram usage:        0 bytes
   717 ;; Hardware stack levels used:    1
   718 ;; Hardware stack levels required when called:    2
   719 ;; This function calls:
   720 ;;		_setFilas
   721 ;;		_shiftBitColumna
   722 ;; This function is called by:
   723 ;;		_main
   724 ;; This function uses a non-reentrant model
   725 ;;
   726                           
   727                           
   728                           ;psect for function _updateScreen
   729  071B                     _updateScreen:	
   730  071B                     l901:	
   731                           ;incstack = 0
   732                           ; Regs used in _updateScreen: [wreg-fsr0h+status,2+status,0+btemp+1+pclath+cstack]
   733                           
   734                           
   735                           ;mainsource.c: 64:     switch(columna){
   736  071B  2FCC               	goto	l953
   737  071C                     l903:	
   738                           
   739                           ;mainsource.c: 66:                 setFilas(0xffcf);
   740  071C  30CF               	movlw	207
   741  071D  00F0               	movwf	setFilas@reg_value
   742  071E  30FF               	movlw	255
   743  071F  00F1               	movwf	setFilas@reg_value+1
   744  0720  120A  118A  26D2  120A  118A  	fcall	_setFilas
   745  0725                     l905:	
   746                           
   747                           ;mainsource.c: 67:                 shiftBitColumna(1);
   748  0725  3001               	movlw	1
   749  0726  120A  118A  2658  120A  118A  	fcall	_shiftBitColumna
   750  072B                     l907:	
   751                           
   752                           ;mainsource.c: 68:                 columna=2;
   753  072B  3002               	movlw	2
   754  072C  1283               	bcf	3,5	;RP0=0, select bank0
   755  072D  1303               	bcf	3,6	;RP1=0, select bank0
   756  072E  00A8               	movwf	_columna
   757  072F  3000               	movlw	0
   758  0730  00A9               	movwf	_columna+1
   759                           
   760                           ;mainsource.c: 69:                 break;
   761  0731  2FED               	goto	l54
   762  0732                     l909:	
   763                           
   764                           ;mainsource.c: 71:                 setFilas(0xffb7);
   765  0732  30B7               	movlw	183
   766  0733  00F0               	movwf	setFilas@reg_value
   767  0734  30FF               	movlw	255
   768  0735  00F1               	movwf	setFilas@reg_value+1
   769  0736  120A  118A  26D2  120A  118A  	fcall	_setFilas
   770  073B                     l911:	
   771                           
   772                           ;mainsource.c: 72:                 shiftBitColumna(0);
   773  073B  3000               	movlw	0
   774  073C  120A  118A  2658  120A  118A  	fcall	_shiftBitColumna
   775  0741                     l913:	
   776                           
   777                           ;mainsource.c: 73:                 columna=3;
   778  0741  3003               	movlw	3
   779  0742  1283               	bcf	3,5	;RP0=0, select bank0
   780  0743  1303               	bcf	3,6	;RP1=0, select bank0
   781  0744  00A8               	movwf	_columna
   782  0745  3000               	movlw	0
   783  0746  00A9               	movwf	_columna+1
   784                           
   785                           ;mainsource.c: 74:                 break;
   786  0747  2FED               	goto	l54
   787  0748                     l915:	
   788                           
   789                           ;mainsource.c: 76:                 setFilas(0xffbb);
   790  0748  30BB               	movlw	187
   791  0749  00F0               	movwf	setFilas@reg_value
   792  074A  30FF               	movlw	255
   793  074B  00F1               	movwf	setFilas@reg_value+1
   794  074C  120A  118A  26D2  120A  118A  	fcall	_setFilas
   795  0751                     l917:	
   796                           
   797                           ;mainsource.c: 77:                 shiftBitColumna(0);
   798  0751  3000               	movlw	0
   799  0752  120A  118A  2658  120A  118A  	fcall	_shiftBitColumna
   800  0757                     l919:	
   801                           
   802                           ;mainsource.c: 78:                 columna=4;
   803  0757  3004               	movlw	4
   804  0758  1283               	bcf	3,5	;RP0=0, select bank0
   805  0759  1303               	bcf	3,6	;RP1=0, select bank0
   806  075A  00A8               	movwf	_columna
   807  075B  3000               	movlw	0
   808  075C  00A9               	movwf	_columna+1
   809                           
   810                           ;mainsource.c: 79:                 break;
   811  075D  2FED               	goto	l54
   812  075E                     l921:	
   813                           
   814                           ;mainsource.c: 81:                 setFilas(0xffdd);
   815  075E  30DD               	movlw	221
   816  075F  00F0               	movwf	setFilas@reg_value
   817  0760  30FF               	movlw	255
   818  0761  00F1               	movwf	setFilas@reg_value+1
   819  0762  120A  118A  26D2  120A  118A  	fcall	_setFilas
   820  0767                     l923:	
   821                           
   822                           ;mainsource.c: 82:                 shiftBitColumna(0);
   823  0767  3000               	movlw	0
   824  0768  120A  118A  2658  120A  118A  	fcall	_shiftBitColumna
   825  076D                     l925:	
   826                           
   827                           ;mainsource.c: 83:                 columna=5;
   828  076D  3005               	movlw	5
   829  076E  1283               	bcf	3,5	;RP0=0, select bank0
   830  076F  1303               	bcf	3,6	;RP1=0, select bank0
   831  0770  00A8               	movwf	_columna
   832  0771  3000               	movlw	0
   833  0772  00A9               	movwf	_columna+1
   834                           
   835                           ;mainsource.c: 84:                 break;
   836  0773  2FED               	goto	l54
   837  0774                     l927:	
   838                           
   839                           ;mainsource.c: 86:                 setFilas(0xffbb);
   840  0774  30BB               	movlw	187
   841  0775  00F0               	movwf	setFilas@reg_value
   842  0776  30FF               	movlw	255
   843  0777  00F1               	movwf	setFilas@reg_value+1
   844  0778  120A  118A  26D2  120A  118A  	fcall	_setFilas
   845  077D                     l929:	
   846                           
   847                           ;mainsource.c: 87:                 shiftBitColumna(0);
   848  077D  3000               	movlw	0
   849  077E  120A  118A  2658  120A  118A  	fcall	_shiftBitColumna
   850  0783                     l931:	
   851                           
   852                           ;mainsource.c: 88:                 columna=6;
   853  0783  3006               	movlw	6
   854  0784  1283               	bcf	3,5	;RP0=0, select bank0
   855  0785  1303               	bcf	3,6	;RP1=0, select bank0
   856  0786  00A8               	movwf	_columna
   857  0787  3000               	movlw	0
   858  0788  00A9               	movwf	_columna+1
   859                           
   860                           ;mainsource.c: 89:                 break;
   861  0789  2FED               	goto	l54
   862  078A                     l933:	
   863                           
   864                           ;mainsource.c: 91:                 setFilas(0xffb7);
   865  078A  30B7               	movlw	183
   866  078B  00F0               	movwf	setFilas@reg_value
   867  078C  30FF               	movlw	255
   868  078D  00F1               	movwf	setFilas@reg_value+1
   869  078E  120A  118A  26D2  120A  118A  	fcall	_setFilas
   870  0793                     l935:	
   871                           
   872                           ;mainsource.c: 92:                 shiftBitColumna(0);
   873  0793  3000               	movlw	0
   874  0794  120A  118A  2658  120A  118A  	fcall	_shiftBitColumna
   875  0799                     l937:	
   876                           
   877                           ;mainsource.c: 93:                 columna=7;
   878  0799  3007               	movlw	7
   879  079A  1283               	bcf	3,5	;RP0=0, select bank0
   880  079B  1303               	bcf	3,6	;RP1=0, select bank0
   881  079C  00A8               	movwf	_columna
   882  079D  3000               	movlw	0
   883  079E  00A9               	movwf	_columna+1
   884                           
   885                           ;mainsource.c: 94:                 break;
   886  079F  2FED               	goto	l54
   887  07A0                     l939:	
   888                           
   889                           ;mainsource.c: 96:                 setFilas(0xffcf);
   890  07A0  30CF               	movlw	207
   891  07A1  00F0               	movwf	setFilas@reg_value
   892  07A2  30FF               	movlw	255
   893  07A3  00F1               	movwf	setFilas@reg_value+1
   894  07A4  120A  118A  26D2  120A  118A  	fcall	_setFilas
   895  07A9                     l941:	
   896                           
   897                           ;mainsource.c: 97:                 shiftBitColumna(0);
   898  07A9  3000               	movlw	0
   899  07AA  120A  118A  2658  120A  118A  	fcall	_shiftBitColumna
   900  07AF                     l943:	
   901                           
   902                           ;mainsource.c: 98:                 columna=8;
   903  07AF  3008               	movlw	8
   904  07B0  1283               	bcf	3,5	;RP0=0, select bank0
   905  07B1  1303               	bcf	3,6	;RP1=0, select bank0
   906  07B2  00A8               	movwf	_columna
   907  07B3  3000               	movlw	0
   908  07B4  00A9               	movwf	_columna+1
   909                           
   910                           ;mainsource.c: 99:                 break;
   911  07B5  2FED               	goto	l54
   912  07B6                     l945:	
   913                           
   914                           ;mainsource.c: 101:                 setFilas(0xffff);
   915  07B6  30FF               	movlw	255
   916  07B7  00F0               	movwf	setFilas@reg_value
   917  07B8  30FF               	movlw	255
   918  07B9  00F1               	movwf	setFilas@reg_value+1
   919  07BA  120A  118A  26D2  120A  118A  	fcall	_setFilas
   920  07BF                     l947:	
   921                           
   922                           ;mainsource.c: 102:                 shiftBitColumna(0);
   923  07BF  3000               	movlw	0
   924  07C0  120A  118A  2658  120A  118A  	fcall	_shiftBitColumna
   925  07C5                     l949:	
   926                           
   927                           ;mainsource.c: 103:                 columna=1;
   928  07C5  3001               	movlw	1
   929  07C6  1283               	bcf	3,5	;RP0=0, select bank0
   930  07C7  1303               	bcf	3,6	;RP1=0, select bank0
   931  07C8  00A8               	movwf	_columna
   932  07C9  3000               	movlw	0
   933  07CA  00A9               	movwf	_columna+1
   934                           
   935                           ;mainsource.c: 104:                 break;
   936  07CB  2FED               	goto	l54
   937  07CC                     l953:	
   938                           
   939                           ; Switch on 2 bytes has been partitioned into a top level switch of size 1, and 1 sub-sw
      +                          itches
   940                           ; Switch size 1, requested type "simple"
   941                           ; Number of cases is 1, Range of values is 0 to 0
   942                           ; switch strategies available:
   943                           ; Name         Instructions Cycles
   944                           ; simple_byte            4     3 (average)
   945                           ; direct_byte           11     8 (fixed)
   946                           ; jumptable            260     6 (fixed)
   947                           ;	Chosen strategy is simple_byte
   948  07CC  1283               	bcf	3,5	;RP0=0, select bank0
   949  07CD  1303               	bcf	3,6	;RP1=0, select bank0
   950  07CE  0829               	movf	_columna+1,w
   951  07CF  3A00               	xorlw	0	; case 0
   952  07D0  1903               	skipnz
   953  07D1  2FD3               	goto	l991
   954  07D2  2FED               	goto	l54
   955  07D3                     l991:	
   956                           
   957                           ; Switch size 1, requested type "simple"
   958                           ; Number of cases is 8, Range of values is 1 to 8
   959                           ; switch strategies available:
   960                           ; Name         Instructions Cycles
   961                           ; simple_byte           25    13 (average)
   962                           ; direct_byte           35    11 (fixed)
   963                           ; jumptable            263     9 (fixed)
   964                           ;	Chosen strategy is simple_byte
   965  07D3  0828               	movf	_columna,w
   966  07D4  3A01               	xorlw	1	; case 1
   967  07D5  1903               	skipnz
   968  07D6  2F1C               	goto	l903
   969  07D7  3A03               	xorlw	3	; case 2
   970  07D8  1903               	skipnz
   971  07D9  2F32               	goto	l909
   972  07DA  3A01               	xorlw	1	; case 3
   973  07DB  1903               	skipnz
   974  07DC  2F48               	goto	l915
   975  07DD  3A07               	xorlw	7	; case 4
   976  07DE  1903               	skipnz
   977  07DF  2F5E               	goto	l921
   978  07E0  3A01               	xorlw	1	; case 5
   979  07E1  1903               	skipnz
   980  07E2  2F74               	goto	l927
   981  07E3  3A03               	xorlw	3	; case 6
   982  07E4  1903               	skipnz
   983  07E5  2F8A               	goto	l933
   984  07E6  3A01               	xorlw	1	; case 7
   985  07E7  1903               	skipnz
   986  07E8  2FA0               	goto	l939
   987  07E9  3A0F               	xorlw	15	; case 8
   988  07EA  1903               	skipnz
   989  07EB  2FB6               	goto	l945
   990  07EC  2FED               	goto	l54
   991  07ED                     l54:	
   992  07ED  0008               	return
   993  07EE                     __end_of_updateScreen:	
   994                           
   995                           	psect	text2
   996  0658                     __ptext2:	
   997 ;; *************** function _shiftBitColumna *****************
   998 ;; Defined at:
   999 ;;		line 38 in file "columnas.c"
  1000 ;; Parameters:    Size  Location     Type
  1001 ;;  bit             1    wreg     unsigned char 
  1002 ;; Auto vars:     Size  Location     Type
  1003 ;;  bit             1    1[COMMON] unsigned char 
  1004 ;; Return value:  Size  Location     Type
  1005 ;;                  1    wreg      void 
  1006 ;; Registers used:
  1007 ;;		wreg, status,2, status,0, pclath, cstack
  1008 ;; Tracked objects:
  1009 ;;		On entry : 0/0
  1010 ;;		On exit  : 0/0
  1011 ;;		Unchanged: 0/0
  1012 ;; Data sizes:     COMMON   BANK0   BANK1   BANK3   BANK2
  1013 ;;      Params:         0       0       0       0       0
  1014 ;;      Locals:         1       0       0       0       0
  1015 ;;      Temps:          1       0       0       0       0
  1016 ;;      Totals:         2       0       0       0       0
  1017 ;;Total ram usage:        2 bytes
  1018 ;; Hardware stack levels used:    1
  1019 ;; Hardware stack levels required when called:    1
  1020 ;; This function calls:
  1021 ;;		_latchClock_Col
  1022 ;;		_latchClock_Fil
  1023 ;;		_shiftClock_Col
  1024 ;; This function is called by:
  1025 ;;		_updateScreen
  1026 ;; This function uses a non-reentrant model
  1027 ;;
  1028                           
  1029                           
  1030                           ;psect for function _shiftBitColumna
  1031  0658                     _shiftBitColumna:	
  1032                           
  1033                           ;incstack = 0
  1034                           ; Regs used in _shiftBitColumna: [wreg+status,2+status,0+pclath+cstack]
  1035                           ;shiftBitColumna@bit stored from wreg
  1036  0658  00F1               	movwf	shiftBitColumna@bit
  1037  0659                     l867:	
  1038                           
  1039                           ;columnas.c: 39:     PORTBbits.RB1 = bit & 0x01;
  1040  0659  0871               	movf	shiftBitColumna@bit,w
  1041  065A  3901               	andlw	1
  1042  065B  00F0               	movwf	??_shiftBitColumna
  1043  065C  0DF0               	rlf	??_shiftBitColumna,f
  1044  065D  1283               	bcf	3,5	;RP0=0, select bank0
  1045  065E  1303               	bcf	3,6	;RP1=0, select bank0
  1046  065F  0806               	movf	6,w	;volatile
  1047  0660  0670               	xorwf	??_shiftBitColumna,w
  1048  0661  39FD               	andlw	-3
  1049  0662  0670               	xorwf	??_shiftBitColumna,w
  1050  0663  0086               	movwf	6	;volatile
  1051  0664                     l869:	
  1052                           
  1053                           ;columnas.c: 40:     shiftClock_Col();
  1054  0664  120A  118A  260D  120A  118A  	fcall	_shiftClock_Col
  1055  0669                     l871:	
  1056                           
  1057                           ;columnas.c: 41:     latchClock_Col();
  1058  0669  120A  118A  2608  120A  118A  	fcall	_latchClock_Col
  1059  066E                     l873:	
  1060                           
  1061                           ;columnas.c: 42:     latchClock_Fil();
  1062  066E  120A  118A  2619  120A  118A  	fcall	_latchClock_Fil
  1063  0673                     l91:	
  1064  0673  0008               	return
  1065  0674                     __end_of_shiftBitColumna:	
  1066                           
  1067                           	psect	text3
  1068  0619                     __ptext3:	
  1069 ;; *************** function _latchClock_Fil *****************
  1070 ;; Defined at:
  1071 ;;		line 16 in file "filas.c"
  1072 ;; Parameters:    Size  Location     Type
  1073 ;;		None
  1074 ;; Auto vars:     Size  Location     Type
  1075 ;;		None
  1076 ;; Return value:  Size  Location     Type
  1077 ;;                  1    wreg      void 
  1078 ;; Registers used:
  1079 ;;		None
  1080 ;; Tracked objects:
  1081 ;;		On entry : 0/0
  1082 ;;		On exit  : 0/0
  1083 ;;		Unchanged: 0/0
  1084 ;; Data sizes:     COMMON   BANK0   BANK1   BANK3   BANK2
  1085 ;;      Params:         0       0       0       0       0
  1086 ;;      Locals:         0       0       0       0       0
  1087 ;;      Temps:          0       0       0       0       0
  1088 ;;      Totals:         0       0       0       0       0
  1089 ;;Total ram usage:        0 bytes
  1090 ;; Hardware stack levels used:    1
  1091 ;; This function calls:
  1092 ;;		Nothing
  1093 ;; This function is called by:
  1094 ;;		_shiftBitColumna
  1095 ;; This function uses a non-reentrant model
  1096 ;;
  1097                           
  1098                           
  1099                           ;psect for function _latchClock_Fil
  1100  0619                     _latchClock_Fil:	
  1101  0619                     l841:	
  1102                           ;incstack = 0
  1103                           ; Regs used in _latchClock_Fil: []
  1104                           
  1105                           
  1106                           ;filas.c: 17:     PORTDbits.RD4 = 0;
  1107  0619  1283               	bcf	3,5	;RP0=0, select bank0
  1108  061A  1303               	bcf	3,6	;RP1=0, select bank0
  1109  061B  1208               	bcf	8,4	;volatile
  1110                           
  1111                           ;filas.c: 19:     PORTDbits.RD4 = 1;
  1112  061C  1608               	bsf	8,4	;volatile
  1113                           
  1114                           ;filas.c: 21:     PORTDbits.RD4 = 0;
  1115  061D  1208               	bcf	8,4	;volatile
  1116  061E                     l65:	
  1117  061E  0008               	return
  1118  061F                     __end_of_latchClock_Fil:	
  1119                           
  1120                           	psect	text4
  1121  06D2                     __ptext4:	
  1122 ;; *************** function _setFilas *****************
  1123 ;; Defined at:
  1124 ;;		line 32 in file "filas.c"
  1125 ;; Parameters:    Size  Location     Type
  1126 ;;  reg_value       2    0[COMMON] unsigned int 
  1127 ;; Auto vars:     Size  Location     Type
  1128 ;;  i               2   10[COMMON] int 
  1129 ;;  valor           2    0        unsigned int 
  1130 ;; Return value:  Size  Location     Type
  1131 ;;                  1    wreg      void 
  1132 ;; Registers used:
  1133 ;;		wreg, status,2, status,0, btemp+1, pclath, cstack
  1134 ;; Tracked objects:
  1135 ;;		On entry : 0/0
  1136 ;;		On exit  : 0/0
  1137 ;;		Unchanged: 0/0
  1138 ;; Data sizes:     COMMON   BANK0   BANK1   BANK3   BANK2
  1139 ;;      Params:         2       0       0       0       0
  1140 ;;      Locals:         4       0       0       0       0
  1141 ;;      Temps:          6       0       0       0       0
  1142 ;;      Totals:        12       0       0       0       0
  1143 ;;Total ram usage:       12 bytes
  1144 ;; Hardware stack levels used:    1
  1145 ;; Hardware stack levels required when called:    1
  1146 ;; This function calls:
  1147 ;;		_enableFilas
  1148 ;;		_shiftClock_Fil
  1149 ;; This function is called by:
  1150 ;;		_main
  1151 ;;		_updateScreen
  1152 ;; This function uses a non-reentrant model
  1153 ;;
  1154                           
  1155                           
  1156                           ;psect for function _setFilas
  1157  06D2                     _setFilas:	
  1158  06D2                     l849:	
  1159                           ;incstack = 0
  1160                           ; Regs used in _setFilas: [wreg+status,2+status,0+btemp+1+pclath+cstack]
  1161                           
  1162                           
  1163                           ;filas.c: 34:     int i = 0;
  1164  06D2  01FA               	clrf	setFilas@i
  1165  06D3  01FB               	clrf	setFilas@i+1
  1166                           
  1167                           ;filas.c: 43:     for(i=0;i<16;i++){
  1168  06D4  01FA               	clrf	setFilas@i
  1169  06D5  01FB               	clrf	setFilas@i+1
  1170  06D6                     l851:	
  1171  06D6  087B               	movf	setFilas@i+1,w
  1172  06D7  3A80               	xorlw	128
  1173  06D8  00FF               	movwf	btemp+1
  1174  06D9  3080               	movlw	128
  1175  06DA  027F               	subwf	btemp+1,w
  1176  06DB  1D03               	skipz
  1177  06DC  2EDF               	goto	u75
  1178  06DD  3010               	movlw	16
  1179  06DE  027A               	subwf	setFilas@i,w
  1180  06DF                     u75:	
  1181  06DF  1C03               	skipc
  1182  06E0  2EE2               	goto	u71
  1183  06E1  2EE3               	goto	u70
  1184  06E2                     u71:	
  1185  06E2  2EE4               	goto	l855
  1186  06E3                     u70:	
  1187  06E3  2F15               	goto	l863
  1188  06E4                     l855:	
  1189                           
  1190                           ;filas.c: 45:         PORTDbits.RD2 = (reg_value & (1<<i) )>>i;
  1191  06E4  0A7A               	incf	setFilas@i,w
  1192  06E5  00F2               	movwf	??_setFilas
  1193  06E6  3001               	movlw	1
  1194  06E7  00F3               	movwf	??_setFilas+1
  1195  06E8  3000               	movlw	0
  1196  06E9  00F4               	movwf	??_setFilas+2
  1197  06EA  2EEE               	goto	u84
  1198  06EB                     u85:	
  1199  06EB  1003               	clrc
  1200  06EC  0DF3               	rlf	??_setFilas+1,f
  1201  06ED  0DF4               	rlf	??_setFilas+2,f
  1202  06EE                     u84:	
  1203  06EE  0BF2               	decfsz	??_setFilas,f
  1204  06EF  2EEB               	goto	u85
  1205  06F0  0870               	movf	setFilas@reg_value,w
  1206  06F1  0573               	andwf	??_setFilas+1,w
  1207  06F2  00F5               	movwf	??_setFilas+3
  1208  06F3  0871               	movf	setFilas@reg_value+1,w
  1209  06F4  0574               	andwf	??_setFilas+2,w
  1210  06F5  00F6               	movwf	??_setFilas+4
  1211  06F6  0A7A               	incf	setFilas@i,w
  1212  06F7  2EFB               	goto	u94
  1213  06F8                     u95:	
  1214  06F8  1003               	clrc
  1215  06F9  0CF6               	rrf	??_setFilas+4,f
  1216  06FA  0CF5               	rrf	??_setFilas+3,f
  1217  06FB                     u94:	
  1218  06FB  3EFF               	addlw	-1
  1219  06FC  1D03               	skipz
  1220  06FD  2EF8               	goto	u95
  1221  06FE  0875               	movf	??_setFilas+3,w
  1222  06FF  00F7               	movwf	??_setFilas+5
  1223  0700  0DF7               	rlf	??_setFilas+5,f
  1224  0701  0DF7               	rlf	??_setFilas+5,f
  1225  0702  1283               	bcf	3,5	;RP0=0, select bank0
  1226  0703  1303               	bcf	3,6	;RP1=0, select bank0
  1227  0704  0808               	movf	8,w	;volatile
  1228  0705  0677               	xorwf	??_setFilas+5,w
  1229  0706  39FB               	andlw	-5
  1230  0707  0677               	xorwf	??_setFilas+5,w
  1231  0708  0088               	movwf	8	;volatile
  1232  0709                     l857:	
  1233                           
  1234                           ;filas.c: 47:         shiftClock_Fil();
  1235  0709  120A  118A  2613  120A  118A  	fcall	_shiftClock_Fil
  1236  070E                     l859:	
  1237                           
  1238                           ;filas.c: 49:     }
  1239  070E  3001               	movlw	1
  1240  070F  07FA               	addwf	setFilas@i,f
  1241  0710  1803               	skipnc
  1242  0711  0AFB               	incf	setFilas@i+1,f
  1243  0712  3000               	movlw	0
  1244  0713  07FB               	addwf	setFilas@i+1,f
  1245  0714  2ED6               	goto	l851
  1246  0715                     l863:	
  1247                           
  1248                           ;filas.c: 51:     enableFilas();
  1249  0715  120A  118A  2604  120A  118A  	fcall	_enableFilas
  1250  071A                     l73:	
  1251  071A  0008               	return
  1252  071B                     __end_of_setFilas:	
  1253                           
  1254                           	psect	text5
  1255  0613                     __ptext5:	
  1256 ;; *************** function _shiftClock_Fil *****************
  1257 ;; Defined at:
  1258 ;;		line 24 in file "filas.c"
  1259 ;; Parameters:    Size  Location     Type
  1260 ;;		None
  1261 ;; Auto vars:     Size  Location     Type
  1262 ;;		None
  1263 ;; Return value:  Size  Location     Type
  1264 ;;                  1    wreg      void 
  1265 ;; Registers used:
  1266 ;;		None
  1267 ;; Tracked objects:
  1268 ;;		On entry : 0/0
  1269 ;;		On exit  : 0/0
  1270 ;;		Unchanged: 0/0
  1271 ;; Data sizes:     COMMON   BANK0   BANK1   BANK3   BANK2
  1272 ;;      Params:         0       0       0       0       0
  1273 ;;      Locals:         0       0       0       0       0
  1274 ;;      Temps:          0       0       0       0       0
  1275 ;;      Totals:         0       0       0       0       0
  1276 ;;Total ram usage:        0 bytes
  1277 ;; Hardware stack levels used:    1
  1278 ;; This function calls:
  1279 ;;		Nothing
  1280 ;; This function is called by:
  1281 ;;		_setFilas
  1282 ;; This function uses a non-reentrant model
  1283 ;;
  1284                           
  1285                           
  1286                           ;psect for function _shiftClock_Fil
  1287  0613                     _shiftClock_Fil:	
  1288  0613                     l843:	
  1289                           ;incstack = 0
  1290                           ; Regs used in _shiftClock_Fil: []
  1291                           
  1292                           
  1293                           ;filas.c: 25:     PORTDbits.RD5 = 0;
  1294  0613  1283               	bcf	3,5	;RP0=0, select bank0
  1295  0614  1303               	bcf	3,6	;RP1=0, select bank0
  1296  0615  1288               	bcf	8,5	;volatile
  1297                           
  1298                           ;filas.c: 27:     PORTDbits.RD5 = 1;
  1299  0616  1688               	bsf	8,5	;volatile
  1300                           
  1301                           ;filas.c: 29:     PORTDbits.RD5 = 0;
  1302  0617  1288               	bcf	8,5	;volatile
  1303  0618                     l68:	
  1304  0618  0008               	return
  1305  0619                     __end_of_shiftClock_Fil:	
  1306                           
  1307                           	psect	text6
  1308  0604                     __ptext6:	
  1309 ;; *************** function _enableFilas *****************
  1310 ;; Defined at:
  1311 ;;		line 8 in file "filas.c"
  1312 ;; Parameters:    Size  Location     Type
  1313 ;;		None
  1314 ;; Auto vars:     Size  Location     Type
  1315 ;;		None
  1316 ;; Return value:  Size  Location     Type
  1317 ;;                  1    wreg      void 
  1318 ;; Registers used:
  1319 ;;		None
  1320 ;; Tracked objects:
  1321 ;;		On entry : 0/0
  1322 ;;		On exit  : 0/0
  1323 ;;		Unchanged: 0/0
  1324 ;; Data sizes:     COMMON   BANK0   BANK1   BANK3   BANK2
  1325 ;;      Params:         0       0       0       0       0
  1326 ;;      Locals:         0       0       0       0       0
  1327 ;;      Temps:          0       0       0       0       0
  1328 ;;      Totals:         0       0       0       0       0
  1329 ;;Total ram usage:        0 bytes
  1330 ;; Hardware stack levels used:    1
  1331 ;; This function calls:
  1332 ;;		Nothing
  1333 ;; This function is called by:
  1334 ;;		_setFilas
  1335 ;; This function uses a non-reentrant model
  1336 ;;
  1337                           
  1338                           
  1339                           ;psect for function _enableFilas
  1340  0604                     _enableFilas:	
  1341  0604                     l839:	
  1342                           ;incstack = 0
  1343                           ; Regs used in _enableFilas: []
  1344                           
  1345                           
  1346                           ;filas.c: 9:     PORTDbits.RD3 = 0;
  1347  0604  1283               	bcf	3,5	;RP0=0, select bank0
  1348  0605  1303               	bcf	3,6	;RP1=0, select bank0
  1349  0606  1188               	bcf	8,3	;volatile
  1350  0607                     l59:	
  1351  0607  0008               	return
  1352  0608                     __end_of_enableFilas:	
  1353                           
  1354                           	psect	text7
  1355  0693                     __ptext7:	
  1356 ;; *************** function _setColumnas *****************
  1357 ;; Defined at:
  1358 ;;		line 22 in file "columnas.c"
  1359 ;; Parameters:    Size  Location     Type
  1360 ;;  reg_value       1    wreg     unsigned char 
  1361 ;; Auto vars:     Size  Location     Type
  1362 ;;  reg_value       1    5[COMMON] unsigned char 
  1363 ;;  i               2    6[COMMON] int 
  1364 ;;  valor           1    4[COMMON] unsigned char 
  1365 ;;  indice          1    0        unsigned char 
  1366 ;; Return value:  Size  Location     Type
  1367 ;;                  1    wreg      void 
  1368 ;; Registers used:
  1369 ;;		wreg, status,2, status,0, btemp+1, pclath, cstack
  1370 ;; Tracked objects:
  1371 ;;		On entry : 0/0
  1372 ;;		On exit  : 0/0
  1373 ;;		Unchanged: 0/0
  1374 ;; Data sizes:     COMMON   BANK0   BANK1   BANK3   BANK2
  1375 ;;      Params:         0       0       0       0       0
  1376 ;;      Locals:         5       0       0       0       0
  1377 ;;      Temps:          3       0       0       0       0
  1378 ;;      Totals:         8       0       0       0       0
  1379 ;;Total ram usage:        8 bytes
  1380 ;; Hardware stack levels used:    1
  1381 ;; Hardware stack levels required when called:    1
  1382 ;; This function calls:
  1383 ;;		_latchClock_Col
  1384 ;;		_shiftClock_Col
  1385 ;; This function is called by:
  1386 ;;		_main
  1387 ;; This function uses a non-reentrant model
  1388 ;;
  1389                           
  1390                           
  1391                           ;psect for function _setColumnas
  1392  0693                     _setColumnas:	
  1393                           
  1394                           ;incstack = 0
  1395                           ; Regs used in _setColumnas: [wreg+status,2+status,0+btemp+1+pclath+cstack]
  1396                           ;setColumnas@reg_value stored from wreg
  1397  0693  00F5               	movwf	setColumnas@reg_value
  1398  0694                     l875:	
  1399  0694                     l877:	
  1400  0694                     l879:	
  1401  0694                     l881:	
  1402                           
  1403                           ;columnas.c: 26:     for(i=0;i<8;i++){
  1404  0694  01F6               	clrf	setColumnas@i
  1405  0695  01F7               	clrf	setColumnas@i+1
  1406  0696                     l887:	
  1407                           
  1408                           ;columnas.c: 27:         valor = (reg_value & (1<<i) )>>i;
  1409  0696  3001               	movlw	1
  1410  0697  00F0               	movwf	??_setColumnas
  1411  0698  0A76               	incf	setColumnas@i,w
  1412  0699  2E9C               	goto	u104
  1413  069A                     u105:	
  1414  069A  1003               	clrc
  1415  069B  0DF0               	rlf	??_setColumnas,f
  1416  069C                     u104:	
  1417  069C  3EFF               	addlw	-1
  1418  069D  1D03               	skipz
  1419  069E  2E9A               	goto	u105
  1420  069F  0870               	movf	??_setColumnas,w
  1421  06A0  0575               	andwf	setColumnas@reg_value,w
  1422  06A1  00F1               	movwf	??_setColumnas+1
  1423  06A2  0A76               	incf	setColumnas@i,w
  1424  06A3  2EA6               	goto	u114
  1425  06A4                     u115:	
  1426  06A4  1003               	clrc
  1427  06A5  0CF1               	rrf	??_setColumnas+1,f
  1428  06A6                     u114:	
  1429  06A6  3EFF               	addlw	-1
  1430  06A7  1D03               	skipz
  1431  06A8  2EA4               	goto	u115
  1432  06A9  0871               	movf	??_setColumnas+1,w
  1433  06AA  00F2               	movwf	??_setColumnas+2
  1434  06AB  0872               	movf	??_setColumnas+2,w
  1435  06AC  00F4               	movwf	setColumnas@valor
  1436  06AD                     l889:	
  1437                           
  1438                           ;columnas.c: 28:         PORTBbits.RB1 = valor;
  1439  06AD  0C74               	rrf	setColumnas@valor,w
  1440  06AE  1283               	bcf	3,5	;RP0=0, select bank0
  1441  06AF  1303               	bcf	3,6	;RP1=0, select bank0
  1442  06B0  1C03               	skipc
  1443  06B1  1086               	bcf	6,1	;volatile
  1444  06B2  1803               	skipnc
  1445  06B3  1486               	bsf	6,1	;volatile
  1446  06B4                     l891:	
  1447                           
  1448                           ;columnas.c: 29:         shiftClock_Col();
  1449  06B4  120A  118A  260D  120A  118A  	fcall	_shiftClock_Col
  1450  06B9                     l893:	
  1451                           
  1452                           ;columnas.c: 32:     }
  1453  06B9  3001               	movlw	1
  1454  06BA  07F6               	addwf	setColumnas@i,f
  1455  06BB  1803               	skipnc
  1456  06BC  0AF7               	incf	setColumnas@i+1,f
  1457  06BD  3000               	movlw	0
  1458  06BE  07F7               	addwf	setColumnas@i+1,f
  1459  06BF                     l895:	
  1460  06BF  0877               	movf	setColumnas@i+1,w
  1461  06C0  3A80               	xorlw	128
  1462  06C1  00FF               	movwf	btemp+1
  1463  06C2  3080               	movlw	128
  1464  06C3  027F               	subwf	btemp+1,w
  1465  06C4  1D03               	skipz
  1466  06C5  2EC8               	goto	u125
  1467  06C6  3008               	movlw	8
  1468  06C7  0276               	subwf	setColumnas@i,w
  1469  06C8                     u125:	
  1470  06C8  1C03               	skipc
  1471  06C9  2ECB               	goto	u121
  1472  06CA  2ECC               	goto	u120
  1473  06CB                     u121:	
  1474  06CB  2E96               	goto	l887
  1475  06CC                     u120:	
  1476  06CC                     l897:	
  1477                           
  1478                           ;columnas.c: 33:     latchClock_Col();
  1479  06CC  120A  118A  2608  120A  118A  	fcall	_latchClock_Col
  1480  06D1                     l88:	
  1481  06D1  0008               	return
  1482  06D2                     __end_of_setColumnas:	
  1483                           
  1484                           	psect	text8
  1485  060D                     __ptext8:	
  1486 ;; *************** function _shiftClock_Col *****************
  1487 ;; Defined at:
  1488 ;;		line 13 in file "columnas.c"
  1489 ;; Parameters:    Size  Location     Type
  1490 ;;		None
  1491 ;; Auto vars:     Size  Location     Type
  1492 ;;		None
  1493 ;; Return value:  Size  Location     Type
  1494 ;;                  1    wreg      void 
  1495 ;; Registers used:
  1496 ;;		None
  1497 ;; Tracked objects:
  1498 ;;		On entry : 0/0
  1499 ;;		On exit  : 0/0
  1500 ;;		Unchanged: 0/0
  1501 ;; Data sizes:     COMMON   BANK0   BANK1   BANK3   BANK2
  1502 ;;      Params:         0       0       0       0       0
  1503 ;;      Locals:         0       0       0       0       0
  1504 ;;      Temps:          0       0       0       0       0
  1505 ;;      Totals:         0       0       0       0       0
  1506 ;;Total ram usage:        0 bytes
  1507 ;; Hardware stack levels used:    1
  1508 ;; This function calls:
  1509 ;;		Nothing
  1510 ;; This function is called by:
  1511 ;;		_setColumnas
  1512 ;;		_shiftBitColumna
  1513 ;; This function uses a non-reentrant model
  1514 ;;
  1515                           
  1516                           
  1517                           ;psect for function _shiftClock_Col
  1518  060D                     _shiftClock_Col:	
  1519  060D                     l847:	
  1520                           ;incstack = 0
  1521                           ; Regs used in _shiftClock_Col: []
  1522                           
  1523                           
  1524                           ;columnas.c: 14:     PORTBbits.RB5 = 0;
  1525  060D  1283               	bcf	3,5	;RP0=0, select bank0
  1526  060E  1303               	bcf	3,6	;RP1=0, select bank0
  1527  060F  1286               	bcf	6,5	;volatile
  1528                           
  1529                           ;columnas.c: 15:     PORTBbits.RB5 = 1;
  1530  0610  1686               	bsf	6,5	;volatile
  1531                           
  1532                           ;columnas.c: 17:     PORTBbits.RB5 = 0;
  1533  0611  1286               	bcf	6,5	;volatile
  1534  0612                     l83:	
  1535  0612  0008               	return
  1536  0613                     __end_of_shiftClock_Col:	
  1537                           
  1538                           	psect	text9
  1539  0608                     __ptext9:	
  1540 ;; *************** function _latchClock_Col *****************
  1541 ;; Defined at:
  1542 ;;		line 7 in file "columnas.c"
  1543 ;; Parameters:    Size  Location     Type
  1544 ;;		None
  1545 ;; Auto vars:     Size  Location     Type
  1546 ;;		None
  1547 ;; Return value:  Size  Location     Type
  1548 ;;                  1    wreg      void 
  1549 ;; Registers used:
  1550 ;;		None
  1551 ;; Tracked objects:
  1552 ;;		On entry : 0/0
  1553 ;;		On exit  : 0/0
  1554 ;;		Unchanged: 0/0
  1555 ;; Data sizes:     COMMON   BANK0   BANK1   BANK3   BANK2
  1556 ;;      Params:         0       0       0       0       0
  1557 ;;      Locals:         0       0       0       0       0
  1558 ;;      Temps:          0       0       0       0       0
  1559 ;;      Totals:         0       0       0       0       0
  1560 ;;Total ram usage:        0 bytes
  1561 ;; Hardware stack levels used:    1
  1562 ;; This function calls:
  1563 ;;		Nothing
  1564 ;; This function is called by:
  1565 ;;		_setColumnas
  1566 ;;		_shiftBitColumna
  1567 ;; This function uses a non-reentrant model
  1568 ;;
  1569                           
  1570                           
  1571                           ;psect for function _latchClock_Col
  1572  0608                     _latchClock_Col:	
  1573  0608                     l845:	
  1574                           ;incstack = 0
  1575                           ; Regs used in _latchClock_Col: []
  1576                           
  1577                           
  1578                           ;columnas.c: 8:     PORTBbits.RB4 = 1;
  1579  0608  1283               	bcf	3,5	;RP0=0, select bank0
  1580  0609  1303               	bcf	3,6	;RP1=0, select bank0
  1581  060A  1606               	bsf	6,4	;volatile
  1582                           
  1583                           ;columnas.c: 10:     PORTBbits.RB4 = 0;
  1584  060B  1206               	bcf	6,4	;volatile
  1585  060C                     l80:	
  1586  060C  0008               	return
  1587  060D                     __end_of_latchClock_Col:	
  1588                           
  1589                           	psect	text10
  1590  0641                     __ptext10:	
  1591 ;; *************** function _init_pines *****************
  1592 ;; Defined at:
  1593 ;;		line 4 in file "init.c"
  1594 ;; Parameters:    Size  Location     Type
  1595 ;;		None
  1596 ;; Auto vars:     Size  Location     Type
  1597 ;;		None
  1598 ;; Return value:  Size  Location     Type
  1599 ;;                  1    wreg      void 
  1600 ;; Registers used:
  1601 ;;		None
  1602 ;; Tracked objects:
  1603 ;;		On entry : 0/0
  1604 ;;		On exit  : 0/0
  1605 ;;		Unchanged: 0/0
  1606 ;; Data sizes:     COMMON   BANK0   BANK1   BANK3   BANK2
  1607 ;;      Params:         0       0       0       0       0
  1608 ;;      Locals:         0       0       0       0       0
  1609 ;;      Temps:          0       0       0       0       0
  1610 ;;      Totals:         0       0       0       0       0
  1611 ;;Total ram usage:        0 bytes
  1612 ;; Hardware stack levels used:    1
  1613 ;; This function calls:
  1614 ;;		Nothing
  1615 ;; This function is called by:
  1616 ;;		_main
  1617 ;; This function uses a non-reentrant model
  1618 ;;
  1619                           
  1620                           
  1621                           ;psect for function _init_pines
  1622  0641                     _init_pines:	
  1623  0641                     l719:	
  1624                           ;incstack = 0
  1625                           ; Regs used in _init_pines: []
  1626                           
  1627                           
  1628                           ;init.c: 5:     TRISBbits.TRISB0 = 0;
  1629  0641  1683               	bsf	3,5	;RP0=1, select bank1
  1630  0642  1303               	bcf	3,6	;RP1=0, select bank1
  1631  0643  1006               	bcf	6,0	;volatile
  1632                           
  1633                           ;init.c: 6:     TRISBbits.TRISB1 = 0;
  1634  0644  1086               	bcf	6,1	;volatile
  1635                           
  1636                           ;init.c: 7:     TRISBbits.TRISB2 = 0;
  1637  0645  1106               	bcf	6,2	;volatile
  1638                           
  1639                           ;init.c: 8:     TRISBbits.TRISB4 = 0;
  1640  0646  1206               	bcf	6,4	;volatile
  1641                           
  1642                           ;init.c: 9:     TRISBbits.TRISB5 = 0;
  1643  0647  1286               	bcf	6,5	;volatile
  1644                           
  1645                           ;init.c: 11:     TRISDbits.TRISD2 = 0;
  1646  0648  1108               	bcf	8,2	;volatile
  1647                           
  1648                           ;init.c: 12:     TRISDbits.TRISD3 = 0;
  1649  0649  1188               	bcf	8,3	;volatile
  1650                           
  1651                           ;init.c: 13:     TRISDbits.TRISD4 = 0;
  1652  064A  1208               	bcf	8,4	;volatile
  1653                           
  1654                           ;init.c: 14:     TRISDbits.TRISD5 = 0;
  1655  064B  1288               	bcf	8,5	;volatile
  1656                           
  1657                           ;init.c: 16:     PORTBbits.RB0 = 0;
  1658  064C  1283               	bcf	3,5	;RP0=0, select bank0
  1659  064D  1303               	bcf	3,6	;RP1=0, select bank0
  1660  064E  1006               	bcf	6,0	;volatile
  1661                           
  1662                           ;init.c: 17:     PORTBbits.RB1 = 0;
  1663  064F  1086               	bcf	6,1	;volatile
  1664                           
  1665                           ;init.c: 18:     PORTBbits.RB2 = 0;
  1666  0650  1106               	bcf	6,2	;volatile
  1667                           
  1668                           ;init.c: 19:     PORTBbits.RB4 = 0;
  1669  0651  1206               	bcf	6,4	;volatile
  1670                           
  1671                           ;init.c: 20:     PORTBbits.RB5 = 0;
  1672  0652  1286               	bcf	6,5	;volatile
  1673                           
  1674                           ;init.c: 22:     PORTDbits.RD2 = 0;
  1675  0653  1108               	bcf	8,2	;volatile
  1676                           
  1677                           ;init.c: 23:     PORTDbits.RD3 = 0;
  1678  0654  1188               	bcf	8,3	;volatile
  1679                           
  1680                           ;init.c: 24:     PORTDbits.RD4 = 0;
  1681  0655  1208               	bcf	8,4	;volatile
  1682                           
  1683                           ;init.c: 25:     PORTDbits.RD5 = 0;
  1684  0656  1288               	bcf	8,5	;volatile
  1685  0657                     l11:	
  1686  0657  0008               	return
  1687  0658                     __end_of_init_pines:	
  1688  007E                     btemp	set	126	;btemp
  1689  007E                     wtemp0	set	126


Data Sizes:
    Strings     0
    Constant    0
    Data        15
    BSS         0
    Persistent  0
    Stack       0

Auto Spaces:
    Space          Size  Autos    Used
    COMMON           14     14      14
    BANK0            80      4      19
    BANK1            80      0       0
    BANK3            96      0       0
    BANK2            96      0       0

Pointer List with Targets:

    None.

Critical Paths under _main in COMMON

    _main->_setFilas
    _updateScreen->_setFilas

Critical Paths under _main in BANK0

    None.

Critical Paths under _main in BANK1

    None.

Critical Paths under _main in BANK3

    None.

Critical Paths under _main in BANK2

    None.

Call Graph Tables:

 ---------------------------------------------------------------------------------
 (Depth) Function   	        Calls       Base Space   Used Autos Params    Refs
 ---------------------------------------------------------------------------------
 (0) _main                                                 6     2      4    1801
                                             12 COMMON     2     2      0
                                              0 BANK0      4     0      4
                         _init_pines
                        _setColumnas
                           _setFilas
                       _updateScreen
 ---------------------------------------------------------------------------------
 (1) _updateScreen                                         0     0      0     820
                           _setFilas
                    _shiftBitColumna
 ---------------------------------------------------------------------------------
 (2) _shiftBitColumna                                      2     2      0      22
                                              0 COMMON     2     2      0
                     _latchClock_Col
                     _latchClock_Fil
                     _shiftClock_Col
 ---------------------------------------------------------------------------------
 (3) _latchClock_Fil                                       0     0      0       0
 ---------------------------------------------------------------------------------
 (2) _setFilas                                            12    10      2     798
                                              0 COMMON    12    10      2
                        _enableFilas
                     _shiftClock_Fil
 ---------------------------------------------------------------------------------
 (3) _shiftClock_Fil                                       0     0      0       0
 ---------------------------------------------------------------------------------
 (3) _enableFilas                                          0     0      0       0
 ---------------------------------------------------------------------------------
 (1) _setColumnas                                          8     8      0     182
                                              0 COMMON     8     8      0
                     _latchClock_Col
                     _shiftClock_Col
 ---------------------------------------------------------------------------------
 (3) _shiftClock_Col                                       0     0      0       0
 ---------------------------------------------------------------------------------
 (3) _latchClock_Col                                       0     0      0       0
 ---------------------------------------------------------------------------------
 (1) _init_pines                                           0     0      0       0
 ---------------------------------------------------------------------------------
 Estimated maximum stack depth 3
 ---------------------------------------------------------------------------------

 Call Graph Graphs:

 _main (ROOT)
   _init_pines
   _setColumnas
     _latchClock_Col
     _shiftClock_Col
   _setFilas
     _enableFilas
     _shiftClock_Fil
   _updateScreen
     _setFilas
       _enableFilas
       _shiftClock_Fil
     _shiftBitColumna
       _latchClock_Col
       _latchClock_Fil
       _shiftClock_Col

 Address spaces:
Name               Size   Autos  Total    Cost      Usage
BANK3               60      0       0       9        0.0%
BITBANK3            60      0       0       8        0.0%
SFR3                 0      0       0       4        0.0%
BITSFR3              0      0       0       4        0.0%
BANK2               60      0       0      11        0.0%
BITBANK2            60      0       0      10        0.0%
SFR2                 0      0       0       5        0.0%
BITSFR2              0      0       0       5        0.0%
BANK1               50      0       0       7        0.0%
BITBANK1            50      0       0       6        0.0%
SFR1                 0      0       0       2        0.0%
BITSFR1              0      0       0       2        0.0%
BANK0               50      4      13       5       23.8%
BITBANK0            50      0       0       4        0.0%
SFR0                 0      0       0       1        0.0%
BITSFR0              0      0       0       1        0.0%
COMMON               E      E       E       1      100.0%
BITCOMMON            E      0       0       0        0.0%
CODE                 0      0       0       0        0.0%
DATA                 0      0      21      12        0.0%
ABS                  0      0      21       3        0.0%
NULL                 0      0       0       0        0.0%
STACK                0      0       0       2        0.0%
EEDATA             100      0       0       0        0.0%


Microchip Technology PIC Macro Assembler V2.10 build 88905656 
Symbol Table                                                                                   Fri May 01 10:28:07 2020

                       pc 0002               __CFG_CP$OFF 0000                        l11 0657  
                      l54 07ED                        l80 060C                        l73 071A  
                      l65 061E                        l83 0612                        l59 0607  
                      l91 0673                        l68 0618                        l88 06D1  
                      u70 06E3                        u71 06E2                        u75 06DF  
                      u84 06EE                        u85 06EB                        u94 06FB  
                      u95 06F8                        fsr 0004                       l901 071B  
                     l719 0641                       l911 073B                       l903 071C  
                     l841 0619                       l921 075E                       l913 0741  
                     l905 0725                       l843 0613                       l851 06D6  
                     l931 0783                       l923 0767                       l915 0748  
                     l907 072B                       l845 0608                       l941 07A9  
                     l933 078A                       l925 076D                       l917 0751  
                     l909 0732                       l847 060D                       l839 0604  
                     l863 0715                       l855 06E4                       l871 0669  
                     l943 07AF                       l935 0793                       l927 0774  
                     l919 0757                       l881 0694                       l857 0709  
                     l849 06D2                       l873 066E                       l945 07B6  
                     l937 0799                       l929 077D                       l953 07CC  
                     l961 0679                       l891 06B4                       l875 0694  
                     l859 070E                       l867 0659                       l947 07BF  
                     l939 07A0                       l963 0679                       l893 06B9  
                     l877 0694                       l869 0664                       l949 07C5  
                     l965 067F                       l895 06BF                       l887 0696  
                     l879 0694                       l991 07D3                       l967 0687  
                     l959 0674                       l897 06CC                       l889 06AD  
                     l969 068A                       u120 06CC                       u104 069C  
                     u121 06CB                       u105 069A                       u114 06A6  
                     u115 06A4                       u125 06C8              __CFG_CPD$OFF 0000  
                     indf 0000              __CFG_FOSC$XT 0000              __CFG_LVP$OFF 0000  
            __CFG_WRT$OFF 0000                      _main 0674                      btemp 007E  
           __CFG_BOREN$ON 0000                      start 0000        shiftBitColumna@bit 0071  
                   ?_main 002F             __CFG_WDTE$OFF 0000                     _value 0020  
                   pclath 000A                     status 0003                     wtemp0 007E  
         __initialization 07EE              __end_of_main 0693            _latchClock_Fil 0619  
          _latchClock_Col 0608   __size_of_shiftClock_Col 0006   __size_of_shiftClock_Fil 0006  
            ?_setColumnas 0070                    ??_main 007C      __size_of_enableFilas 0004  
          __CFG_PWRTE$OFF 0000    __end_of_latchClock_Col 060D    __end_of_latchClock_Fil 061F  
                  _value2 002E                    _value3 002C                    _value4 002A  
        __end_of_setFilas 071B   __end_of__initialization 07FC  __size_of_shiftBitColumna 001C  
         ?_latchClock_Col 0070           ?_latchClock_Fil 0070            __pcstackCOMMON 0070  
            __pidataBANK0 061F                __pmaintext 0674            _shiftClock_Fil 0613  
          _shiftClock_Col 060D      __size_of_setColumnas 003F                 ?_setFilas 0070  
  __end_of_shiftClock_Col 0613    __end_of_shiftClock_Fil 0619         ??_shiftBitColumna 0070  
              _init_pines 0641                   __ptext1 071B                   __ptext2 0658  
                 __ptext3 0619                   __ptext4 06D2                   __ptext5 0613  
                 __ptext6 0604                   __ptext7 0693                   __ptext8 060D  
                 __ptext9 0608                   _columna 0028      end_of_initialization 07FC  
              ??_setFilas 0072           ?_shiftClock_Col 0070           ?_shiftClock_Fil 0070  
               _PORTBbits 0006             ??_enableFilas 0070                 _PORTDbits 0008  
               _TRISBbits 0086                 _TRISDbits 0088          ??_latchClock_Col 0070  
        ??_latchClock_Fil 0070             ?_updateScreen 0070               ?_init_pines 0070  
     start_initialization 07EE       __end_of_enableFilas 0608            ??_updateScreen 007C  
       setFilas@reg_value 0070                init_fetch0 062E               __pdataBANK0 0020  
               ___latbits 0002             __pcstackBANK0 002F       __size_of_init_pines 0017  
         _shiftBitColumna 0658         __size_of_setFilas 0049              setColumnas@i 0076  
           ??_setColumnas 0070               _enableFilas 0604          ??_shiftClock_Col 0070  
        ??_shiftClock_Fil 0070          setColumnas@valor 0074      __end_of_updateScreen 07EE  
     __end_of_setColumnas 06D2   __end_of_shiftBitColumna 0674              ??_init_pines 0070  
               setFilas@i 007A                  __ptext10 0641             __size_of_main 001F  
      __end_of_init_pines 0658                  _setFilas 06D2                  main@argc 002F  
                main@argv 0031               _setColumnas 0693                  init_ram0 0632  
        ?_shiftBitColumna 0070      setColumnas@reg_value 0075   __size_of_latchClock_Col 0005  
 __size_of_latchClock_Fil 0006     __size_of_updateScreen 00D3              ?_enableFilas 0070  
            _updateScreen 071B  
